; ModuleID = '54/636.c'
source_filename = "54/636.c"
target datalayout = "e-m:e-p270:32:32-p271:32:32-p272:64:64-i64:64-f80:128-n8:16:32:64-S128"
target triple = "x86_64-pc-linux-gnu"

@.str = private unnamed_addr constant [3 x i8] c"%d\00", align 1
@.str.1 = private unnamed_addr constant [4 x i8] c"%d\0A\00", align 1

; Function Attrs: noinline nounwind uwtable
define dso_local i32 @main() #0 {
  %1 = alloca i32, align 4
  %2 = alloca [100 x i32], align 16
  %3 = alloca i32, align 4
  %4 = alloca i32, align 4
  %5 = alloca i32, align 4
  %6 = alloca i32, align 4
  %7 = alloca i32, align 4
  store i32 0, i32* %1, align 4
  %8 = bitcast [100 x i32]* %2 to i8*
  call void @llvm.memset.p0i8.i64(i8* align 16 %8, i8 0, i64 400, i1 false)
  store i32 0, i32* %6, align 4
  store i32 0, i32* %7, align 4
  %9 = call i32 (i8*, ...) @__isoc99_scanf(i8* getelementptr inbounds ([3 x i8], [3 x i8]* @.str, i64 0, i64 0), i32* %4)
  %10 = call i32 (i8*, ...) @__isoc99_scanf(i8* getelementptr inbounds ([3 x i8], [3 x i8]* @.str, i64 0, i64 0), i32* %5)
  br label %11

11:                                               ; preds = %71, %0
  %12 = load i32, i32* %6, align 4
  %13 = add nsw i32 %12, 1
  store i32 %13, i32* %6, align 4
  %14 = icmp ne i32 %13, 0
  br i1 %14, label %15, label %72

15:                                               ; preds = %11
  %16 = load i32, i32* %6, align 4
  %17 = load i32, i32* %4, align 4
  %18 = mul nsw i32 %16, %17
  %19 = load i32, i32* %5, align 4
  %20 = add nsw i32 %18, %19
  %21 = getelementptr inbounds [100 x i32], [100 x i32]* %2, i64 0, i64 1
  store i32 %20, i32* %21, align 4
  store i32 1, i32* %7, align 4
  store i32 2, i32* %3, align 4
  br label %22

22:                                               ; preds = %64, %15
  %23 = load i32, i32* %3, align 4
  %24 = load i32, i32* %4, align 4
  %25 = icmp sle i32 %23, %24
  br i1 %25, label %26, label %67

26:                                               ; preds = %22
  %27 = load i32, i32* %3, align 4
  %28 = sub nsw i32 %27, 1
  %29 = sext i32 %28 to i64
  %30 = getelementptr inbounds [100 x i32], [100 x i32]* %2, i64 0, i64 %29
  %31 = load i32, i32* %30, align 4
  %32 = load i32, i32* %4, align 4
  %33 = sub nsw i32 %32, 1
  %34 = srem i32 %31, %33
  %35 = icmp eq i32 %34, 0
  br i1 %35, label %36, label %52

36:                                               ; preds = %26
  %37 = load i32, i32* %3, align 4
  %38 = sub nsw i32 %37, 1
  %39 = sext i32 %38 to i64
  %40 = getelementptr inbounds [100 x i32], [100 x i32]* %2, i64 0, i64 %39
  %41 = load i32, i32* %40, align 4
  %42 = load i32, i32* %4, align 4
  %43 = sub nsw i32 %42, 1
  %44 = sdiv i32 %41, %43
  %45 = load i32, i32* %4, align 4
  %46 = mul nsw i32 %44, %45
  %47 = load i32, i32* %5, align 4
  %48 = add nsw i32 %46, %47
  %49 = load i32, i32* %3, align 4
  %50 = sext i32 %49 to i64
  %51 = getelementptr inbounds [100 x i32], [100 x i32]* %2, i64 0, i64 %50
  store i32 %48, i32* %51, align 4
  br label %52

52:                                               ; preds = %36, %26
  %53 = load i32, i32* %3, align 4
  %54 = sub nsw i32 %53, 1
  %55 = sext i32 %54 to i64
  %56 = getelementptr inbounds [100 x i32], [100 x i32]* %2, i64 0, i64 %55
  %57 = load i32, i32* %56, align 4
  %58 = load i32, i32* %4, align 4
  %59 = sub nsw i32 %58, 1
  %60 = srem i32 %57, %59
  %61 = icmp ne i32 %60, 0
  br i1 %61, label %62, label %63

62:                                               ; preds = %52
  store i32 0, i32* %7, align 4
  br label %67

63:                                               ; preds = %52
  br label %64

64:                                               ; preds = %63
  %65 = load i32, i32* %3, align 4
  %66 = add nsw i32 %65, 1
  store i32 %66, i32* %3, align 4
  br label %22

67:                                               ; preds = %62, %22
  %68 = load i32, i32* %7, align 4
  %69 = icmp eq i32 %68, 1
  br i1 %69, label %70, label %71

70:                                               ; preds = %67
  br label %72

71:                                               ; preds = %67
  br label %11

72:                                               ; preds = %70, %11
  %73 = load i32, i32* %4, align 4
  %74 = sext i32 %73 to i64
  %75 = getelementptr inbounds [100 x i32], [100 x i32]* %2, i64 0, i64 %74
  %76 = load i32, i32* %75, align 4
  %77 = call i32 (i8*, ...) @printf(i8* getelementptr inbounds ([4 x i8], [4 x i8]* @.str.1, i64 0, i64 0), i32 %76)
  ret i32 0
}

; Function Attrs: argmemonly nounwind willreturn
declare void @llvm.memset.p0i8.i64(i8* nocapture writeonly, i8, i64, i1 immarg) #1

declare dso_local i32 @__isoc99_scanf(i8*, ...) #2

declare dso_local i32 @printf(i8*, ...) #2


!llvm.module.flags = !{!0}
!llvm.ident = !{!1}

!0 = !{i32 1, !"wchar_size", i32 4}
!1 = !{!"clang version 10.0.0-4ubuntu1 "}
