; ModuleID = 'source-C-CXX/53/636.c'
source_filename = "source-C-CXX/53/636.c"
target datalayout = "e-m:e-p270:32:32-p271:32:32-p272:64:64-i64:64-f80:128-n8:16:32:64-S128"
target triple = "x86_64-pc-linux-gnu"

@.str = private unnamed_addr constant [3 x i8] c"%d\00", align 1
@.str.1 = private unnamed_addr constant [4 x i8] c"%d\0A\00", align 1

; Function Attrs: nofree nounwind sspstrong uwtable
define dso_local i32 @main() local_unnamed_addr #0 {
  %1 = alloca [100 x i32], align 16
  %2 = alloca i32, align 4
  %3 = alloca i32, align 4
  %4 = bitcast [100 x i32]* %1 to i8*
  call void @llvm.lifetime.start.p0i8(i64 400, i8* nonnull %4) #4
  call void @llvm.memset.p0i8.i64(i8* noundef nonnull align 16 dereferenceable(400) %4, i8 0, i64 400, i1 false)
  %5 = bitcast i32* %2 to i8*
  call void @llvm.lifetime.start.p0i8(i64 4, i8* nonnull %5) #4
  %6 = bitcast i32* %3 to i8*
  call void @llvm.lifetime.start.p0i8(i64 4, i8* nonnull %6) #4
  %7 = call i32 (i8*, ...) @__isoc99_scanf(i8* getelementptr inbounds ([3 x i8], [3 x i8]* @.str, i64 0, i64 0), i32* nonnull %2)
  %8 = call i32 (i8*, ...) @__isoc99_scanf(i8* getelementptr inbounds ([3 x i8], [3 x i8]* @.str, i64 0, i64 0), i32* nonnull %3)
  %9 = load i32, i32* %2, align 4, !tbaa !5
  %10 = load i32, i32* %3, align 4, !tbaa !5
  %11 = getelementptr inbounds [100 x i32], [100 x i32]* %1, i64 0, i64 1
  %12 = add nsw i32 %9, -1
  %13 = icmp slt i32 %9, 2
  %14 = add nsw i32 %9, %10
  store i32 %14, i32* %11, align 4, !tbaa !5
  br i1 %13, label %41, label %15

15:                                               ; preds = %0
  %16 = add nuw i32 %9, 1
  %17 = zext i32 %16 to i64
  br label %22

18:                                               ; preds = %36, %22
  %19 = add nuw nsw i32 %24, 1
  %20 = mul nsw i32 %19, %9
  %21 = add nsw i32 %20, %10
  store i32 %21, i32* %11, align 4, !tbaa !5
  br label %22

22:                                               ; preds = %15, %18
  %23 = phi i32 [ %21, %18 ], [ %14, %15 ]
  %24 = phi i32 [ %19, %18 ], [ 1, %15 ]
  %25 = srem i32 %23, %12
  %26 = icmp eq i32 %25, 0
  br i1 %26, label %27, label %18

27:                                               ; preds = %22, %36
  %28 = phi i64 [ %34, %36 ], [ 2, %22 ]
  %29 = phi i32 [ %38, %36 ], [ %23, %22 ]
  %30 = sdiv i32 %29, %12
  %31 = mul nsw i32 %30, %9
  %32 = add nsw i32 %31, %10
  %33 = getelementptr inbounds [100 x i32], [100 x i32]* %1, i64 0, i64 %28
  store i32 %32, i32* %33, align 4, !tbaa !5
  %34 = add nuw nsw i64 %28, 1
  %35 = icmp eq i64 %34, %17
  br i1 %35, label %41, label %36, !llvm.loop !9

36:                                               ; preds = %27
  %37 = getelementptr inbounds [100 x i32], [100 x i32]* %1, i64 0, i64 %28
  %38 = load i32, i32* %37, align 4, !tbaa !5
  %39 = srem i32 %38, %12
  %40 = icmp eq i32 %39, 0
  br i1 %40, label %27, label %18

41:                                               ; preds = %27, %0
  %42 = sext i32 %9 to i64
  %43 = getelementptr inbounds [100 x i32], [100 x i32]* %1, i64 0, i64 %42
  %44 = load i32, i32* %43, align 4, !tbaa !5
  %45 = call i32 (i8*, ...) @printf(i8* nonnull dereferenceable(1) getelementptr inbounds ([4 x i8], [4 x i8]* @.str.1, i64 0, i64 0), i32 %44)
  call void @llvm.lifetime.end.p0i8(i64 4, i8* nonnull %6) #4
  call void @llvm.lifetime.end.p0i8(i64 4, i8* nonnull %5) #4
  call void @llvm.lifetime.end.p0i8(i64 400, i8* nonnull %4) #4
  ret i32 0
}

; Function Attrs: argmemonly mustprogress nofree nosync nounwind willreturn
declare void @llvm.lifetime.start.p0i8(i64 immarg, i8* nocapture) #1

; Function Attrs: argmemonly mustprogress nofree nounwind willreturn writeonly
declare void @llvm.memset.p0i8.i64(i8* nocapture writeonly, i8, i64, i1 immarg) #2

; Function Attrs: nofree nounwind
declare noundef i32 @__isoc99_scanf(i8* nocapture noundef readonly, ...) local_unnamed_addr #3

; Function Attrs: nofree nounwind
declare noundef i32 @printf(i8* nocapture noundef readonly, ...) local_unnamed_addr #3

; Function Attrs: argmemonly mustprogress nofree nosync nounwind willreturn
declare void @llvm.lifetime.end.p0i8(i64 immarg, i8* nocapture) #1


!llvm.module.flags = !{!0, !1, !2, !3}
!llvm.ident = !{!4}

!0 = !{i32 1, !"wchar_size", i32 4}
!1 = !{i32 7, !"PIC Level", i32 2}
!2 = !{i32 7, !"PIE Level", i32 2}
!3 = !{i32 7, !"uwtable", i32 1}
!4 = !{!"clang version 13.0.0"}
!5 = !{!6, !6, i64 0}
!6 = !{!"int", !7, i64 0}
!7 = !{!"omnipotent char", !8, i64 0}
!8 = !{!"Simple C/C++ TBAA"}
!9 = distinct !{!9, !10}
!10 = !{!"llvm.loop.mustprogress"}
